target datalayout = "e-m:e-p270:32:32-p271:32:32-p272:64:64-i64:64-i128:128-f80:128-n8:16:32:64-S128"
target triple = "x86_64-pc-linux-gnu"

%struct.AVFilterContext = type { ptr, ptr, ptr, ptr, ptr, i32, ptr, ptr, i32, ptr, ptr, i32, i32, ptr, ptr, ptr, ptr, i32, ptr, i32, i32 }
%struct.CorrContext = type { ptr, %struct.FFFrameSync, double, double, double, [4 x double], i64, i32, i32, [4 x i8], [4 x i32], [4 x i8], [4 x [2 x float]], ptr, ptr, i32, [4 x i32], [4 x i32], ptr, ptr }
%struct.FFFrameSync = type { ptr, ptr, i32, %struct.AVRational, i64, ptr, ptr, i32, i32, i8, i8, ptr, i32, i32, i32, i32 }
%struct.AVRational = type { i32, i32 }
%struct.AVChannelLayout = type { i32, i32, %union.anon.1, ptr }
%union.anon.1 = type { i64 }
%struct.ThreadData = type { ptr, ptr }
%struct.AVFrame = type { [8 x ptr], [8 x i32], ptr, i32, i32, i32, i32, i32, %struct.AVRational, i64, i64, %struct.AVRational, i32, ptr, i32, i32, [8 x ptr], ptr, i32, ptr, i32, i32, i32, i32, i32, i32, i32, i64, ptr, i32, ptr, ptr, i64, i64, i64, i64, ptr, %struct.AVChannelLayout, i64 }
%struct.Sums = type { [2 x i64] }

; Function Attrs: nounwind uwtable
define internal i32 @sum_slice8(ptr noundef %0, ptr noundef %1, i32 noundef %2, i32 noundef %3) #0 {
  %5 = alloca ptr, align 8
  %6 = alloca ptr, align 8
  %7 = alloca i32, align 4
  %8 = alloca i32, align 4
  %9 = alloca ptr, align 8
  %10 = alloca ptr, align 8
  %11 = alloca ptr, align 8
  %12 = alloca ptr, align 8
  %13 = alloca i32, align 4
  %14 = alloca i32, align 4
  %15 = alloca i64, align 8
  %16 = alloca i64, align 8
  %17 = alloca i32, align 4
  %18 = alloca i32, align 4
  %19 = alloca i32, align 4
  %20 = alloca i32, align 4
  %21 = alloca ptr, align 8
  %22 = alloca ptr, align 8
  %23 = alloca i64, align 8
  %24 = alloca i64, align 8
  %25 = alloca i32, align 4
  %26 = alloca i32, align 4
  store ptr %0, ptr %5, align 8, !tbaa !4
  store ptr %1, ptr %6, align 8, !tbaa !73
  store i32 %2, ptr %7, align 4, !tbaa !35
  store i32 %3, ptr %8, align 4, !tbaa !35
  call void @llvm.lifetime.start.p0(i64 8, ptr %9) #11
  %27 = load ptr, ptr %5, align 8, !tbaa !4
  %28 = getelementptr inbounds nuw %struct.AVFilterContext, ptr %27, i32 0, i32 9
  %29 = load ptr, ptr %28, align 8, !tbaa !9
  store ptr %29, ptr %9, align 8, !tbaa !22
  call void @llvm.lifetime.start.p0(i64 8, ptr %10) #11
  %30 = load ptr, ptr %6, align 8, !tbaa !73
  store ptr %30, ptr %10, align 8, !tbaa !74
  call void @llvm.lifetime.start.p0(i64 8, ptr %11) #11
  %31 = load ptr, ptr %10, align 8, !tbaa !74
  %32 = getelementptr inbounds nuw %struct.ThreadData, ptr %31, i32 0, i32 0
  %33 = load ptr, ptr %32, align 8, !tbaa !76
  store ptr %33, ptr %11, align 8, !tbaa !79
  call void @llvm.lifetime.start.p0(i64 8, ptr %12) #11
  %34 = load ptr, ptr %10, align 8, !tbaa !74
  %35 = getelementptr inbounds nuw %struct.ThreadData, ptr %34, i32 0, i32 1
  %36 = load ptr, ptr %35, align 8, !tbaa !80
  store ptr %36, ptr %12, align 8, !tbaa !79
  call void @llvm.lifetime.start.p0(i64 4, ptr %13) #11
  store i32 0, ptr %13, align 4, !tbaa !35
  br label %37

37:                                               ; preds = %179, %4
  %38 = load i32, ptr %13, align 4, !tbaa !35
  %39 = load ptr, ptr %9, align 8, !tbaa !22
  %40 = getelementptr inbounds nuw %struct.CorrContext, ptr %39, i32 0, i32 15
  %41 = load i32, ptr %40, align 8, !tbaa !36
  %42 = icmp slt i32 %38, %41
  br i1 %42, label %44, label %43

43:                                               ; preds = %37
  store i32 2, ptr %14, align 4
  call void @llvm.lifetime.end.p0(i64 4, ptr %13) #11
  br label %182

44:                                               ; preds = %37
  call void @llvm.lifetime.start.p0(i64 8, ptr %15) #11
  %45 = load ptr, ptr %11, align 8, !tbaa !79
  %46 = getelementptr inbounds nuw %struct.AVFrame, ptr %45, i32 0, i32 1
  %47 = load i32, ptr %13, align 4, !tbaa !35
  %48 = sext i32 %47 to i64
  %49 = getelementptr inbounds [8 x i32], ptr %46, i64 0, i64 %48
  %50 = load i32, ptr %49, align 4, !tbaa !35
  %51 = sext i32 %50 to i64
  %52 = udiv i64 %51, 1
  store i64 %52, ptr %15, align 8, !tbaa !81
  call void @llvm.lifetime.start.p0(i64 8, ptr %16) #11
  %53 = load ptr, ptr %12, align 8, !tbaa !79
  %54 = getelementptr inbounds nuw %struct.AVFrame, ptr %53, i32 0, i32 1
  %55 = load i32, ptr %13, align 4, !tbaa !35
  %56 = sext i32 %55 to i64
  %57 = getelementptr inbounds [8 x i32], ptr %54, i64 0, i64 %56
  %58 = load i32, ptr %57, align 4, !tbaa !35
  %59 = sext i32 %58 to i64
  %60 = udiv i64 %59, 1
  store i64 %60, ptr %16, align 8, !tbaa !81
  call void @llvm.lifetime.start.p0(i64 4, ptr %17) #11
  %61 = load ptr, ptr %9, align 8, !tbaa !22
  %62 = getelementptr inbounds nuw %struct.CorrContext, ptr %61, i32 0, i32 17
  %63 = load i32, ptr %13, align 4, !tbaa !35
  %64 = sext i32 %63 to i64
  %65 = getelementptr inbounds [4 x i32], ptr %62, i64 0, i64 %64
  %66 = load i32, ptr %65, align 4, !tbaa !35
  store i32 %66, ptr %17, align 4, !tbaa !35
  call void @llvm.lifetime.start.p0(i64 4, ptr %18) #11
  %67 = load ptr, ptr %9, align 8, !tbaa !22
  %68 = getelementptr inbounds nuw %struct.CorrContext, ptr %67, i32 0, i32 16
  %69 = load i32, ptr %13, align 4, !tbaa !35
  %70 = sext i32 %69 to i64
  %71 = getelementptr inbounds [4 x i32], ptr %68, i64 0, i64 %70
  %72 = load i32, ptr %71, align 4, !tbaa !35
  store i32 %72, ptr %18, align 4, !tbaa !35
  call void @llvm.lifetime.start.p0(i64 4, ptr %19) #11
  %73 = load i32, ptr %17, align 4, !tbaa !35
  %74 = load i32, ptr %7, align 4, !tbaa !35
  %75 = mul nsw i32 %73, %74
  %76 = load i32, ptr %8, align 4, !tbaa !35
  %77 = sdiv i32 %75, %76
  store i32 %77, ptr %19, align 4, !tbaa !35
  call void @llvm.lifetime.start.p0(i64 4, ptr %20) #11
  %78 = load i32, ptr %17, align 4, !tbaa !35
  %79 = load i32, ptr %7, align 4, !tbaa !35
  %80 = add nsw i32 %79, 1
  %81 = mul nsw i32 %78, %80
  %82 = load i32, ptr %8, align 4, !tbaa !35
  %83 = sdiv i32 %81, %82
  store i32 %83, ptr %20, align 4, !tbaa !35
  call void @llvm.lifetime.start.p0(i64 8, ptr %21) #11
  %84 = load ptr, ptr %11, align 8, !tbaa !79
  %85 = getelementptr inbounds nuw %struct.AVFrame, ptr %84, i32 0, i32 0
  %86 = load i32, ptr %13, align 4, !tbaa !35
  %87 = sext i32 %86 to i64
  %88 = getelementptr inbounds [8 x ptr], ptr %85, i64 0, i64 %87
  %89 = load ptr, ptr %88, align 8, !tbaa !82
  %90 = load i64, ptr %15, align 8, !tbaa !81
  %91 = load i32, ptr %19, align 4, !tbaa !35
  %92 = sext i32 %91 to i64
  %93 = mul nsw i64 %90, %92
  %94 = getelementptr inbounds i8, ptr %89, i64 %93
  store ptr %94, ptr %21, align 8, !tbaa !82
  call void @llvm.lifetime.start.p0(i64 8, ptr %22) #11
  %95 = load ptr, ptr %12, align 8, !tbaa !79
  %96 = getelementptr inbounds nuw %struct.AVFrame, ptr %95, i32 0, i32 0
  %97 = load i32, ptr %13, align 4, !tbaa !35
  %98 = sext i32 %97 to i64
  %99 = getelementptr inbounds [8 x ptr], ptr %96, i64 0, i64 %98
  %100 = load ptr, ptr %99, align 8, !tbaa !82
  %101 = load i64, ptr %16, align 8, !tbaa !81
  %102 = load i32, ptr %19, align 4, !tbaa !35
  %103 = sext i32 %102 to i64
  %104 = mul nsw i64 %101, %103
  %105 = getelementptr inbounds i8, ptr %100, i64 %104
  store ptr %105, ptr %22, align 8, !tbaa !82
  call void @llvm.lifetime.start.p0(i64 8, ptr %23) #11
  store i64 0, ptr %23, align 8, !tbaa !81
  call void @llvm.lifetime.start.p0(i64 8, ptr %24) #11
  store i64 0, ptr %24, align 8, !tbaa !81
  call void @llvm.lifetime.start.p0(i64 4, ptr %25) #11
  %106 = load i32, ptr %19, align 4, !tbaa !35
  store i32 %106, ptr %25, align 4, !tbaa !35
  br label %107

107:                                              ; preds = %145, %44
  %108 = load i32, ptr %25, align 4, !tbaa !35
  %109 = load i32, ptr %20, align 4, !tbaa !35
  %110 = icmp slt i32 %108, %109
  br i1 %110, label %112, label %111

111:                                              ; preds = %107
  store i32 5, ptr %14, align 4
  call void @llvm.lifetime.end.p0(i64 4, ptr %25) #11
  br label %148

112:                                              ; preds = %107
  call void @llvm.lifetime.start.p0(i64 4, ptr %26) #11
  store i32 0, ptr %26, align 4, !tbaa !35
  br label %113

113:                                              ; preds = %135, %112
  %114 = load i32, ptr %26, align 4, !tbaa !35
  %115 = load i32, ptr %18, align 4, !tbaa !35
  %116 = icmp slt i32 %114, %115
  br i1 %116, label %118, label %117

117:                                              ; preds = %113
  store i32 8, ptr %14, align 4
  call void @llvm.lifetime.end.p0(i64 4, ptr %26) #11
  br label %138

118:                                              ; preds = %113
  %119 = load ptr, ptr %21, align 8, !tbaa !82
  %120 = load i32, ptr %26, align 4, !tbaa !35
  %121 = sext i32 %120 to i64
  %122 = getelementptr inbounds i8, ptr %119, i64 %121
  %123 = load i8, ptr %122, align 1, !tbaa !34
  %124 = zext i8 %123 to i64
  %125 = load i64, ptr %23, align 8, !tbaa !81
  %126 = add i64 %125, %124
  store i64 %126, ptr %23, align 8, !tbaa !81
  %127 = load ptr, ptr %22, align 8, !tbaa !82
  %128 = load i32, ptr %26, align 4, !tbaa !35
  %129 = sext i32 %128 to i64
  %130 = getelementptr inbounds i8, ptr %127, i64 %129
  %131 = load i8, ptr %130, align 1, !tbaa !34
  %132 = zext i8 %131 to i64
  %133 = load i64, ptr %24, align 8, !tbaa !81
  %134 = add i64 %133, %132
  store i64 %134, ptr %24, align 8, !tbaa !81
  br label %135

135:                                              ; preds = %118
  %136 = load i32, ptr %26, align 4, !tbaa !35
  %137 = add nsw i32 %136, 1
  store i32 %137, ptr %26, align 4, !tbaa !35
  br label %113, !llvm.loop !90

138:                                              ; preds = %117
  %139 = load i64, ptr %15, align 8, !tbaa !81
  %140 = load ptr, ptr %21, align 8, !tbaa !82
  %141 = getelementptr inbounds i8, ptr %140, i64 %139
  store ptr %141, ptr %21, align 8, !tbaa !82
  %142 = load i64, ptr %16, align 8, !tbaa !81
  %143 = load ptr, ptr %22, align 8, !tbaa !82
  %144 = getelementptr inbounds i8, ptr %143, i64 %142
  store ptr %144, ptr %22, align 8, !tbaa !82
  br label %145

145:                                              ; preds = %138
  %146 = load i32, ptr %25, align 4, !tbaa !35
  %147 = add nsw i32 %146, 1
  store i32 %147, ptr %25, align 4, !tbaa !35
  br label %107, !llvm.loop !91

148:                                              ; preds = %111
  %149 = load i64, ptr %23, align 8, !tbaa !81
  %150 = load ptr, ptr %9, align 8, !tbaa !22
  %151 = getelementptr inbounds nuw %struct.CorrContext, ptr %150, i32 0, i32 13
  %152 = load ptr, ptr %151, align 8, !tbaa !67
  %153 = load i32, ptr %7, align 4, !tbaa !35
  %154 = load ptr, ptr %9, align 8, !tbaa !22
  %155 = getelementptr inbounds nuw %struct.CorrContext, ptr %154, i32 0, i32 15
  %156 = load i32, ptr %155, align 8, !tbaa !36
  %157 = mul nsw i32 %153, %156
  %158 = load i32, ptr %13, align 4, !tbaa !35
  %159 = add nsw i32 %157, %158
  %160 = sext i32 %159 to i64
  %161 = getelementptr inbounds %struct.Sums, ptr %152, i64 %160
  %162 = getelementptr inbounds nuw %struct.Sums, ptr %161, i32 0, i32 0
  %163 = getelementptr inbounds [2 x i64], ptr %162, i64 0, i64 0
  store i64 %149, ptr %163, align 8, !tbaa !81
  %164 = load i64, ptr %24, align 8, !tbaa !81
  %165 = load ptr, ptr %9, align 8, !tbaa !22
  %166 = getelementptr inbounds nuw %struct.CorrContext, ptr %165, i32 0, i32 13
  %167 = load ptr, ptr %166, align 8, !tbaa !67
  %168 = load i32, ptr %7, align 4, !tbaa !35
  %169 = load ptr, ptr %9, align 8, !tbaa !22
  %170 = getelementptr inbounds nuw %struct.CorrContext, ptr %169, i32 0, i32 15
  %171 = load i32, ptr %170, align 8, !tbaa !36
  %172 = mul nsw i32 %168, %171
  %173 = load i32, ptr %13, align 4, !tbaa !35
  %174 = add nsw i32 %172, %173
  %175 = sext i32 %174 to i64
  %176 = getelementptr inbounds %struct.Sums, ptr %167, i64 %175
  %177 = getelementptr inbounds nuw %struct.Sums, ptr %176, i32 0, i32 0
  %178 = getelementptr inbounds [2 x i64], ptr %177, i64 0, i64 1
  store i64 %164, ptr %178, align 8, !tbaa !81
  call void @llvm.lifetime.end.p0(i64 8, ptr %24) #11
  call void @llvm.lifetime.end.p0(i64 8, ptr %23) #11
  call void @llvm.lifetime.end.p0(i64 8, ptr %22) #11
  call void @llvm.lifetime.end.p0(i64 8, ptr %21) #11
  call void @llvm.lifetime.end.p0(i64 4, ptr %20) #11
  call void @llvm.lifetime.end.p0(i64 4, ptr %19) #11
  call void @llvm.lifetime.end.p0(i64 4, ptr %18) #11
  call void @llvm.lifetime.end.p0(i64 4, ptr %17) #11
  call void @llvm.lifetime.end.p0(i64 8, ptr %16) #11
  call void @llvm.lifetime.end.p0(i64 8, ptr %15) #11
  br label %179

179:                                              ; preds = %148
  %180 = load i32, ptr %13, align 4, !tbaa !35
  %181 = add nsw i32 %180, 1
  store i32 %181, ptr %13, align 4, !tbaa !35
  br label %37, !llvm.loop !92

182:                                              ; preds = %43
  store i32 1, ptr %14, align 4
  call void @llvm.lifetime.end.p0(i64 8, ptr %12) #11
  call void @llvm.lifetime.end.p0(i64 8, ptr %11) #11
  call void @llvm.lifetime.end.p0(i64 8, ptr %10) #11
  call void @llvm.lifetime.end.p0(i64 8, ptr %9) #11
  ret i32 0
}