; Function Attrs: nofree norecurse nosync nounwind memory(readwrite, inaccessiblemem: none) uwtable
define internal noundef i32 @sum_slice8(ptr noundef readonly captures(none) %0, ptr noundef readonly captures(none) %1, i32 noundef %2, i32 noundef %3) #6 {
  %5 = getelementptr inbounds nuw i8, ptr %0, i64 72
  %6 = load ptr, ptr %5, align 8, !tbaa !4
  %7 = load ptr, ptr %1, align 8, !tbaa !68
  %8 = getelementptr inbounds nuw i8, ptr %1, i64 8
  %9 = load ptr, ptr %8, align 8, !tbaa !71
  %10 = getelementptr inbounds nuw i8, ptr %6, i64 248
  %11 = load i32, ptr %10, align 8, !tbaa !32
  %12 = icmp sgt i32 %11, 0
  br i1 %12, label %.lr.ph, label %._crit_edge

.lr.ph:                                           ; preds = %4
  %13 = getelementptr inbounds nuw i8, ptr %7, i64 64
  %14 = getelementptr inbounds nuw i8, ptr %9, i64 64
  %15 = getelementptr inbounds nuw i8, ptr %6, i64 268
  %16 = getelementptr inbounds nuw i8, ptr %6, i64 252
  %17 = add nsw i32 %2, 1
  %18 = getelementptr inbounds nuw i8, ptr %6, i64 232
  %19 = load ptr, ptr %18, align 8, !tbaa !62
  %20 = mul nsw i32 %11, %2
  %21 = sext i32 %20 to i64
  %wide.trip.count83 = zext nneg i32 %11 to i64
  br label %22

._crit_edge:                                      ; preds = %._crit_edge71, %4
  ret i32 0

22:                                               ; preds = %.lr.ph, %._crit_edge71
  %indvars.iv80 = phi i64 [ 0, %.lr.ph ], [ %indvars.iv.next81, %._crit_edge71 ]
  %23 = getelementptr inbounds nuw [8 x i32], ptr %13, i64 0, i64 %indvars.iv80
  %24 = load i32, ptr %23, align 4, !tbaa !60
  %25 = sext i32 %24 to i64
  %26 = getelementptr inbounds nuw [8 x i32], ptr %14, i64 0, i64 %indvars.iv80
  %27 = load i32, ptr %26, align 4, !tbaa !60
  %28 = sext i32 %27 to i64
  %29 = getelementptr inbounds nuw [4 x i32], ptr %15, i64 0, i64 %indvars.iv80
  %30 = load i32, ptr %29, align 4, !tbaa !60
  %31 = getelementptr inbounds nuw [4 x i32], ptr %16, i64 0, i64 %indvars.iv80
  %32 = load i32, ptr %31, align 4, !tbaa !60
  %33 = mul nsw i32 %30, %2
  %34 = sdiv i32 %33, %3
  %35 = mul nsw i32 %30, %17
  %36 = sdiv i32 %35, %3
  %37 = icmp slt i32 %34, %36
  %38 = icmp sgt i32 %32, 0
  %or.cond = select i1 %37, i1 %38, i1 false
  br i1 %or.cond, label %.preheader.us.preheader, label %._crit_edge71

.preheader.us.preheader:                          ; preds = %22
  %39 = getelementptr inbounds nuw [8 x ptr], ptr %7, i64 0, i64 %indvars.iv80
  %40 = load ptr, ptr %39, align 8, !tbaa !72
  %41 = sext i32 %34 to i64
  %42 = mul nsw i64 %41, %25
  %43 = getelementptr inbounds i8, ptr %40, i64 %42
  %44 = getelementptr inbounds nuw [8 x ptr], ptr %9, i64 0, i64 %indvars.iv80
  %45 = load ptr, ptr %44, align 8, !tbaa !72
  %46 = mul nsw i64 %41, %28
  %47 = getelementptr inbounds i8, ptr %45, i64 %46
  %wide.trip.count = zext nneg i32 %32 to i64
  br label %.preheader.us

.preheader.us:                                    ; preds = %.preheader.us.preheader, %._crit_edge.us
  %.05570.us = phi i32 [ %59, %._crit_edge.us ], [ %34, %.preheader.us.preheader ]
  %.05669.us = phi i64 [ %56, %._crit_edge.us ], [ 0, %.preheader.us.preheader ]
  %.05768.us = phi i64 [ %52, %._crit_edge.us ], [ 0, %.preheader.us.preheader ]
  %.05967.us = phi ptr [ %58, %._crit_edge.us ], [ %47, %.preheader.us.preheader ]
  %.06066.us = phi ptr [ %57, %._crit_edge.us ], [ %43, %.preheader.us.preheader ]
  br label %48

48:                                               ; preds = %.preheader.us, %48
  %indvars.iv = phi i64 [ 0, %.preheader.us ], [ %indvars.iv.next, %48 ]
  %.163.us = phi i64 [ %.05669.us, %.preheader.us ], [ %56, %48 ]
  %.15862.us = phi i64 [ %.05768.us, %.preheader.us ], [ %52, %48 ]
  %49 = getelementptr inbounds nuw i8, ptr %.06066.us, i64 %indvars.iv
  %50 = load i8, ptr %49, align 1, !tbaa !31
  %51 = zext i8 %50 to i64
  %52 = add i64 %.15862.us, %51
  %53 = getelementptr inbounds nuw i8, ptr %.05967.us, i64 %indvars.iv
  %54 = load i8, ptr %53, align 1, !tbaa !31
  %55 = zext i8 %54 to i64
  %56 = add i64 %.163.us, %55
  %indvars.iv.next = add nuw nsw i64 %indvars.iv, 1
  %exitcond.not = icmp eq i64 %indvars.iv.next, %wide.trip.count
  br i1 %exitcond.not, label %._crit_edge.us, label %48, !llvm.loop !79

._crit_edge.us:                                   ; preds = %48
  %57 = getelementptr inbounds i8, ptr %.06066.us, i64 %25
  %58 = getelementptr inbounds i8, ptr %.05967.us, i64 %28
  %59 = add nsw i32 %.05570.us, 1
  %exitcond79.not = icmp eq i32 %59, %36
  br i1 %exitcond79.not, label %._crit_edge71, label %.preheader.us, !llvm.loop !80

._crit_edge71:                                    ; preds = %._crit_edge.us, %22
  %.057.lcssa = phi i64 [ 0, %22 ], [ %52, %._crit_edge.us ]
  %.056.lcssa = phi i64 [ 0, %22 ], [ %56, %._crit_edge.us ]
  %60 = add nsw i64 %indvars.iv80, %21
  %61 = getelementptr inbounds %struct.Sums, ptr %19, i64 %60
  store i64 %.057.lcssa, ptr %61, align 8, !tbaa !77
  %62 = getelementptr inbounds %struct.Sums, ptr %19, i64 %60, i32 0, i64 1
  store i64 %.056.lcssa, ptr %62, align 8, !tbaa !77
  %indvars.iv.next81 = add nuw nsw i64 %indvars.iv80, 1
  %exitcond84.not = icmp eq i64 %indvars.iv.next81, %wide.trip.count83
  br i1 %exitcond84.not, label %._crit_edge, label %22, !llvm.loop !81
}